target datalayout = "e-m:e-p270:32:32-p271:32:32-p272:64:64-i64:64-i128:128-f80:128-n8:16:32:64-S128"
target triple = "x86_64-pc-linux-gnu"

@.str = private unnamed_addr constant [69 x i8] c"Usage: hwloc-diff [options] <old.xml> <new.xml> [<output.diff.xml>]\0A\00", align 1
@.str.1 = private unnamed_addr constant [10 x i8] c"Options:\0A\00", align 1
@.str.2 = private unnamed_addr constant [81 x i8] c"  --refname <name>  Change the XML reference identifier to <name> in the output\0A\00", align 1
@.str.3 = private unnamed_addr constant [68 x i8] c"                    (default is the filename of the first topology\0A\00", align 1
@.str.4 = private unnamed_addr constant [45 x i8] c"  --version         Report version and exit\0A\00", align 1
@.str.5 = private unnamed_addr constant [37 x i8] c"  -h --help         Show this usage\0A\00", align 1

; Function Attrs: nounwind uwtable
define hidden void @usage(ptr noundef %0, ptr noundef %1) #0 {
  %3 = alloca ptr, align 8
  %4 = alloca ptr, align 8
  store ptr %0, ptr %3, align 8, !tbaa !4
  store ptr %1, ptr %4, align 8, !tbaa !9
  %5 = load ptr, ptr %4, align 8, !tbaa !9
  %6 = call i32 (ptr, ptr, ...) @fprintf(ptr noundef %5, ptr noundef @.str) #8
  %7 = load ptr, ptr %4, align 8, !tbaa !9
  %8 = call i32 (ptr, ptr, ...) @fprintf(ptr noundef %7, ptr noundef @.str.1) #8
  %9 = load ptr, ptr %4, align 8, !tbaa !9
  %10 = call i32 (ptr, ptr, ...) @fprintf(ptr noundef %9, ptr noundef @.str.2) #8
  %11 = load ptr, ptr %4, align 8, !tbaa !9
  %12 = call i32 (ptr, ptr, ...) @fprintf(ptr noundef %11, ptr noundef @.str.3) #8
  %13 = load ptr, ptr %4, align 8, !tbaa !9
  %14 = call i32 (ptr, ptr, ...) @fprintf(ptr noundef %13, ptr noundef @.str.4) #8
  %15 = load ptr, ptr %4, align 8, !tbaa !9
  %16 = call i32 (ptr, ptr, ...) @fprintf(ptr noundef %15, ptr noundef @.str.5) #8
  ret void
}