; Function Attrs: nofree nounwind uwtable
define hidden void @usage(ptr readnone captures(none) %0, ptr noundef captures(none) %1) local_unnamed_addr #0 {
  %3 = tail call i64 @fwrite(ptr nonnull @.str, i64 68, i64 1, ptr %1)
  %4 = tail call i64 @fwrite(ptr nonnull @.str.1, i64 9, i64 1, ptr %1)
  %5 = tail call i64 @fwrite(ptr nonnull @.str.2, i64 80, i64 1, ptr %1)
  %6 = tail call i64 @fwrite(ptr nonnull @.str.3, i64 67, i64 1, ptr %1)
  %7 = tail call i64 @fwrite(ptr nonnull @.str.4, i64 44, i64 1, ptr %1)
  %8 = tail call i64 @fwrite(ptr nonnull @.str.5, i64 36, i64 1, ptr %1)
  ret void
}